target datalayout = "e-m:e-p270:32:32-p271:32:32-p272:64:64-i64:64-i128:128-f80:128-n8:16:32:64-S128"
target triple = "x86_64-pc-linux-gnu"

%struct.dec_mel = type { ptr, i64, i32, i32, i32, i32, i32, i64 }

; Function Attrs: inlinehint nounwind uwtable
define internal i32 @mel_init(ptr noundef %0, ptr noundef %1, i32 noundef %2, i32 noundef %3) #4 {
  %5 = alloca i32, align 4
  %6 = alloca ptr, align 8
  %7 = alloca ptr, align 8
  %8 = alloca i32, align 4
  %9 = alloca i32, align 4
  %10 = alloca i32, align 4
  %11 = alloca i32, align 4
  %12 = alloca i64, align 8
  %13 = alloca i32, align 4
  %14 = alloca i32, align 4
  store ptr %0, ptr %6, align 8, !tbaa !80
  store ptr %1, ptr %7, align 8, !tbaa !16
  store i32 %2, ptr %8, align 4, !tbaa !10
  store i32 %3, ptr %9, align 4, !tbaa !10
  call void @llvm.lifetime.start.p0(i64 4, ptr %10) #7
  call void @llvm.lifetime.start.p0(i64 4, ptr %11) #7
  %15 = load ptr, ptr %7, align 8, !tbaa !16
  %16 = load i32, ptr %8, align 4, !tbaa !10
  %17 = sext i32 %16 to i64
  %18 = getelementptr inbounds i8, ptr %15, i64 %17
  %19 = load i32, ptr %9, align 4, !tbaa !10
  %20 = sext i32 %19 to i64
  %21 = sub i64 0, %20
  %22 = getelementptr inbounds i8, ptr %18, i64 %21
  %23 = load ptr, ptr %6, align 8, !tbaa !80
  %24 = getelementptr inbounds nuw %struct.dec_mel, ptr %23, i32 0, i32 0
  store ptr %22, ptr %24, align 8, !tbaa !82
  %25 = load ptr, ptr %6, align 8, !tbaa !80
  %26 = getelementptr inbounds nuw %struct.dec_mel, ptr %25, i32 0, i32 2
  store i32 0, ptr %26, align 8, !tbaa !85
  %27 = load ptr, ptr %6, align 8, !tbaa !80
  %28 = getelementptr inbounds nuw %struct.dec_mel, ptr %27, i32 0, i32 1
  store i64 0, ptr %28, align 8, !tbaa !86
  %29 = load ptr, ptr %6, align 8, !tbaa !80
  %30 = getelementptr inbounds nuw %struct.dec_mel, ptr %29, i32 0, i32 4
  store i32 0, ptr %30, align 8, !tbaa !87
  %31 = load i32, ptr %9, align 4, !tbaa !10
  %32 = sub nsw i32 %31, 1
  %33 = load ptr, ptr %6, align 8, !tbaa !80
  %34 = getelementptr inbounds nuw %struct.dec_mel, ptr %33, i32 0, i32 3
  store i32 %32, ptr %34, align 4, !tbaa !88
  %35 = load ptr, ptr %6, align 8, !tbaa !80
  %36 = getelementptr inbounds nuw %struct.dec_mel, ptr %35, i32 0, i32 5
  store i32 0, ptr %36, align 4, !tbaa !89
  %37 = load ptr, ptr %6, align 8, !tbaa !80
  %38 = getelementptr inbounds nuw %struct.dec_mel, ptr %37, i32 0, i32 6
  store i32 0, ptr %38, align 8, !tbaa !90
  %39 = load ptr, ptr %6, align 8, !tbaa !80
  %40 = getelementptr inbounds nuw %struct.dec_mel, ptr %39, i32 0, i32 7
  store i64 0, ptr %40, align 8, !tbaa !91
  %41 = load ptr, ptr %6, align 8, !tbaa !80
  %42 = getelementptr inbounds nuw %struct.dec_mel, ptr %41, i32 0, i32 0
  %43 = load ptr, ptr %42, align 8, !tbaa !82
  %44 = ptrtoint ptr %43 to i64
  %45 = and i64 %44, 3
  %46 = trunc i64 %45 to i32
  %47 = sub nsw i32 4, %46
  store i32 %47, ptr %10, align 4, !tbaa !10
  store i32 0, ptr %11, align 4, !tbaa !10
  br label %48

48:                                               ; preds = %128, %4
  %49 = load i32, ptr %11, align 4, !tbaa !10
  %50 = load i32, ptr %10, align 4, !tbaa !10
  %51 = icmp slt i32 %49, %50
  br i1 %51, label %52, label %131

52:                                               ; preds = %48
  call void @llvm.lifetime.start.p0(i64 8, ptr %12) #7
  call void @llvm.lifetime.start.p0(i64 4, ptr %13) #7
  %53 = load ptr, ptr %6, align 8, !tbaa !80
  %54 = getelementptr inbounds nuw %struct.dec_mel, ptr %53, i32 0, i32 4
  %55 = load i32, ptr %54, align 8, !tbaa !87
  %56 = icmp eq i32 %55, 1
  br i1 %56, label %57, label %66

57:                                               ; preds = %52
  %58 = load ptr, ptr %6, align 8, !tbaa !80
  %59 = getelementptr inbounds nuw %struct.dec_mel, ptr %58, i32 0, i32 0
  %60 = load ptr, ptr %59, align 8, !tbaa !82
  %61 = getelementptr inbounds i8, ptr %60, i64 0
  %62 = load i8, ptr %61, align 1, !tbaa !51
  %63 = zext i8 %62 to i32
  %64 = icmp sgt i32 %63, 143
  br i1 %64, label %65, label %66

65:                                               ; preds = %57
  store i32 0, ptr %5, align 4
  store i32 1, ptr %14, align 4
  br label %125

66:                                               ; preds = %57, %52
  %67 = load ptr, ptr %6, align 8, !tbaa !80
  %68 = getelementptr inbounds nuw %struct.dec_mel, ptr %67, i32 0, i32 3
  %69 = load i32, ptr %68, align 4, !tbaa !88
  %70 = icmp sgt i32 %69, 0
  br i1 %70, label %71, label %77

71:                                               ; preds = %66
  %72 = load ptr, ptr %6, align 8, !tbaa !80
  %73 = getelementptr inbounds nuw %struct.dec_mel, ptr %72, i32 0, i32 0
  %74 = load ptr, ptr %73, align 8, !tbaa !82
  %75 = load i8, ptr %74, align 1, !tbaa !51
  %76 = zext i8 %75 to i32
  br label %78

77:                                               ; preds = %66
  br label %78

78:                                               ; preds = %77, %71
  %79 = phi i32 [ %76, %71 ], [ 255, %77 ]
  %80 = sext i32 %79 to i64
  store i64 %80, ptr %12, align 8, !tbaa !92
  %81 = load ptr, ptr %6, align 8, !tbaa !80
  %82 = getelementptr inbounds nuw %struct.dec_mel, ptr %81, i32 0, i32 3
  %83 = load i32, ptr %82, align 4, !tbaa !88
  %84 = icmp eq i32 %83, 1
  br i1 %84, label %85, label %88

85:                                               ; preds = %78
  %86 = load i64, ptr %12, align 8, !tbaa !92
  %87 = or i64 %86, 15
  store i64 %87, ptr %12, align 8, !tbaa !92
  br label %88

88:                                               ; preds = %85, %78
  %89 = load ptr, ptr %6, align 8, !tbaa !80
  %90 = getelementptr inbounds nuw %struct.dec_mel, ptr %89, i32 0, i32 3
  %91 = load i32, ptr %90, align 4, !tbaa !88
  %92 = add nsw i32 %91, -1
  store i32 %92, ptr %90, align 4, !tbaa !88
  %93 = icmp sgt i32 %91, 0
  %94 = zext i1 %93 to i32
  %95 = load ptr, ptr %6, align 8, !tbaa !80
  %96 = getelementptr inbounds nuw %struct.dec_mel, ptr %95, i32 0, i32 0
  %97 = load ptr, ptr %96, align 8, !tbaa !82
  %98 = sext i32 %94 to i64
  %99 = getelementptr inbounds i8, ptr %97, i64 %98
  store ptr %99, ptr %96, align 8, !tbaa !82
  %100 = load ptr, ptr %6, align 8, !tbaa !80
  %101 = getelementptr inbounds nuw %struct.dec_mel, ptr %100, i32 0, i32 4
  %102 = load i32, ptr %101, align 8, !tbaa !87
  %103 = sub nsw i32 8, %102
  store i32 %103, ptr %13, align 4, !tbaa !10
  %104 = load ptr, ptr %6, align 8, !tbaa !80
  %105 = getelementptr inbounds nuw %struct.dec_mel, ptr %104, i32 0, i32 1
  %106 = load i64, ptr %105, align 8, !tbaa !86
  %107 = load i32, ptr %13, align 4, !tbaa !10
  %108 = zext i32 %107 to i64
  %109 = shl i64 %106, %108
  %110 = load i64, ptr %12, align 8, !tbaa !92
  %111 = or i64 %109, %110
  %112 = load ptr, ptr %6, align 8, !tbaa !80
  %113 = getelementptr inbounds nuw %struct.dec_mel, ptr %112, i32 0, i32 1
  store i64 %111, ptr %113, align 8, !tbaa !86
  %114 = load i32, ptr %13, align 4, !tbaa !10
  %115 = load ptr, ptr %6, align 8, !tbaa !80
  %116 = getelementptr inbounds nuw %struct.dec_mel, ptr %115, i32 0, i32 2
  %117 = load i32, ptr %116, align 8, !tbaa !85
  %118 = add nsw i32 %117, %114
  store i32 %118, ptr %116, align 8, !tbaa !85
  %119 = load i64, ptr %12, align 8, !tbaa !92
  %120 = and i64 %119, 255
  %121 = icmp eq i64 %120, 255
  %122 = zext i1 %121 to i32
  %123 = load ptr, ptr %6, align 8, !tbaa !80
  %124 = getelementptr inbounds nuw %struct.dec_mel, ptr %123, i32 0, i32 4
  store i32 %122, ptr %124, align 8, !tbaa !87
  store i32 0, ptr %14, align 4
  br label %125

125:                                              ; preds = %88, %65
  call void @llvm.lifetime.end.p0(i64 4, ptr %13) #7
  call void @llvm.lifetime.end.p0(i64 8, ptr %12) #7
  %126 = load i32, ptr %14, align 4
  switch i32 %126, label %141 [
    i32 0, label %127
  ]

127:                                              ; preds = %125
  br label %128

128:                                              ; preds = %127
  %129 = load i32, ptr %11, align 4, !tbaa !10
  %130 = add nsw i32 %129, 1
  store i32 %130, ptr %11, align 4, !tbaa !10
  br label %48, !llvm.loop !93

131:                                              ; preds = %48
  %132 = load ptr, ptr %6, align 8, !tbaa !80
  %133 = getelementptr inbounds nuw %struct.dec_mel, ptr %132, i32 0, i32 2
  %134 = load i32, ptr %133, align 8, !tbaa !85
  %135 = sub nsw i32 64, %134
  %136 = load ptr, ptr %6, align 8, !tbaa !80
  %137 = getelementptr inbounds nuw %struct.dec_mel, ptr %136, i32 0, i32 1
  %138 = load i64, ptr %137, align 8, !tbaa !86
  %139 = zext i32 %135 to i64
  %140 = shl i64 %138, %139
  store i64 %140, ptr %137, align 8, !tbaa !86
  store i32 1, ptr %5, align 4
  store i32 1, ptr %14, align 4
  br label %141

141:                                              ; preds = %131, %125
  call void @llvm.lifetime.end.p0(i64 4, ptr %11) #7
  call void @llvm.lifetime.end.p0(i64 4, ptr %10) #7
  %142 = load i32, ptr %5, align 4
  ret i32 %142
}