; Function Attrs: inlinehint nofree norecurse nosync nounwind memory(argmem: readwrite) uwtable
define internal fastcc range(i32 0, 2) i32 @mel_init(ptr noundef nonnull writeonly captures(none) initializes((0, 36), (40, 48)) %0, ptr noundef %1, i32 noundef range(i32 2, -2147483648) %2, i32 noundef range(i32 2, 4080) %3) unnamed_addr #4 {
  %5 = zext nneg i32 %2 to i64
  %6 = getelementptr i8, ptr %1, i64 %5
  %7 = zext nneg i32 %3 to i64
  %8 = sub nsw i64 0, %7
  %9 = getelementptr i8, ptr %6, i64 %8
  store ptr %9, ptr %0, align 8, !tbaa !75
  %10 = getelementptr inbounds nuw i8, ptr %0, i64 16
  store i32 0, ptr %10, align 8, !tbaa !77
  %11 = getelementptr inbounds nuw i8, ptr %0, i64 8
  store i64 0, ptr %11, align 8, !tbaa !78
  %12 = getelementptr inbounds nuw i8, ptr %0, i64 24
  store i32 0, ptr %12, align 8, !tbaa !79
  %13 = add nsw i32 %3, -1
  %14 = getelementptr inbounds nuw i8, ptr %0, i64 20
  store i32 %13, ptr %14, align 4, !tbaa !80
  %15 = getelementptr inbounds nuw i8, ptr %0, i64 28
  store i32 0, ptr %15, align 4, !tbaa !81
  %16 = getelementptr inbounds nuw i8, ptr %0, i64 32
  store i32 0, ptr %16, align 8, !tbaa !82
  %17 = getelementptr inbounds nuw i8, ptr %0, i64 40
  store i64 0, ptr %17, align 8, !tbaa !83
  %18 = ptrtoint ptr %9 to i64
  %19 = trunc i64 %18 to i32
  %20 = and i32 %19, 3
  %21 = sub nuw nsw i32 4, %20
  br label %22

22:                                               ; preds = %4, %.critedge
  %23 = phi i32 [ 0, %4 ], [ %46, %.critedge ]
  %24 = phi i64 [ 0, %4 ], [ %45, %.critedge ]
  %25 = phi i32 [ %13, %4 ], [ %39, %.critedge ]
  %26 = phi ptr [ %9, %4 ], [ %41, %.critedge ]
  %.03839 = phi i32 [ 0, %4 ], [ %49, %.critedge ]
  %27 = phi i32 [ 0, %4 ], [ %48, %.critedge ]
  %.not = icmp eq i32 %27, 0
  br i1 %.not, label %31, label %28

28:                                               ; preds = %22
  %29 = load i8, ptr %26, align 1, !tbaa !44
  %30 = icmp ugt i8 %29, -113
  br i1 %30, label %.loopexit, label %31

31:                                               ; preds = %28, %22
  %32 = icmp sgt i32 %25, 0
  br i1 %32, label %33, label %.critedge

33:                                               ; preds = %31
  %34 = load i8, ptr %26, align 1, !tbaa !44
  %35 = zext i8 %34 to i64
  br label %.critedge

.critedge:                                        ; preds = %31, %33
  %36 = phi i64 [ %35, %33 ], [ 255, %31 ]
  %37 = icmp eq i32 %25, 1
  %38 = or i64 %36, 15
  %spec.select = select i1 %37, i64 %38, i64 %36
  %39 = add nsw i32 %25, -1
  store i32 %39, ptr %14, align 4, !tbaa !80
  %40 = zext i1 %32 to i64
  %41 = getelementptr inbounds nuw i8, ptr %26, i64 %40
  store ptr %41, ptr %0, align 8, !tbaa !75
  %42 = sub nuw nsw i32 8, %27
  %43 = zext nneg i32 %42 to i64
  %44 = shl i64 %24, %43
  %45 = or i64 %44, %spec.select
  store i64 %45, ptr %11, align 8, !tbaa !78
  %46 = add nuw nsw i32 %23, %42
  store i32 %46, ptr %10, align 8, !tbaa !77
  %47 = icmp eq i64 %spec.select, 255
  %48 = zext i1 %47 to i32
  store i32 %48, ptr %12, align 8, !tbaa !79
  %49 = add nuw nsw i32 %.03839, 1
  %exitcond.not = icmp eq i32 %49, %21
  br i1 %exitcond.not, label %50, label %22, !llvm.loop !84

50:                                               ; preds = %.critedge
  %51 = sub nsw i32 64, %46
  %52 = zext nneg i32 %51 to i64
  %53 = shl i64 %45, %52
  store i64 %53, ptr %11, align 8, !tbaa !78
  br label %.loopexit

.loopexit:                                        ; preds = %28, %50
  %.2 = phi i32 [ 1, %50 ], [ 0, %28 ]
  ret i32 %.2
}